; Function Attrs: nounwind sspstrong uwtable
define internal i64 @lazy_init_yielder(i64 %0, i64 noundef %1, i32 noundef %2, ptr noundef %3, i64 %4) #0 {
  %6 = inttoptr i64 %1 to ptr
  %7 = load i64, ptr %6, align 8, !tbaa !21
  %8 = and i64 %7, 8192
  %.not.i.i = icmp eq i64 %8, 0
  br i1 %.not.i.i, label %11, label %9

9:                                                ; preds = %5
  %10 = getelementptr inbounds nuw i8, ptr %6, i64 16
  br label %RARRAY_AREF.exit12

11:                                               ; preds = %5
  %12 = getelementptr inbounds nuw i8, ptr %6, i64 32
  %13 = load ptr, ptr %12, align 8, !tbaa !44
  br label %RARRAY_AREF.exit12

RARRAY_AREF.exit12:                               ; preds = %9, %11
  %.in = phi ptr [ %10, %9 ], [ %13, %11 ]
  %14 = load i64, ptr %.in, align 8, !tbaa !7
  %15 = getelementptr i8, ptr %.in, i64 8
  %16 = load i64, ptr %15, align 8, !tbaa !7
  %17 = load i64, ptr @id_memo, align 8, !tbaa !7
  %18 = tail call i64 @rb_attr_get(i64 noundef %14, i64 noundef %17) #18
  %19 = tail call i64 @rb_enum_values_pack(i32 noundef %2, ptr noundef %3) #18
  %.inv = icmp slt i32 %2, 2
  %20 = select i1 %.inv, i64 0, i64 2
  %21 = tail call i64 @rb_imemo_new(i32 noundef 5, i64 noundef 0, i64 noundef 40) #18
  %22 = inttoptr i64 %21 to ptr
  %23 = getelementptr inbounds nuw i8, ptr %22, i64 16
  store i64 %1, ptr %23, align 8, !tbaa !7
  %24 = getelementptr inbounds nuw i8, ptr %22, i64 24
  store i64 %19, ptr %24, align 8, !tbaa !7
  %25 = getelementptr inbounds nuw i8, ptr %22, i64 32
  store i64 %20, ptr %25, align 8, !tbaa !44
  %26 = inttoptr i64 %16 to ptr
  %27 = getelementptr inbounds nuw i8, ptr %26, i64 16
  %28 = getelementptr inbounds nuw i8, ptr %26, i64 32
  br label %29

29:                                               ; preds = %RARRAY_AREF.exit.i, %RARRAY_AREF.exit12
  %.016.i = phi i64 [ 0, %RARRAY_AREF.exit12 ], [ %46, %RARRAY_AREF.exit.i ]
  %30 = load i64, ptr %26, align 8, !tbaa !21
  %31 = and i64 %30, 8192
  %.not.i.i13 = icmp eq i64 %31, 0
  br i1 %.not.i.i13, label %rb_array_len.exit.i, label %rb_array_len.exit.thread.i

rb_array_len.exit.i:                              ; preds = %29
  %32 = load i64, ptr %27, align 8, !tbaa !44
  %33 = icmp slt i64 %.016.i, %32
  br i1 %33, label %37, label %47

rb_array_len.exit.thread.i:                       ; preds = %29
  %34 = lshr i64 %30, 15
  %35 = and i64 %34, 127
  %36 = icmp samesign ult i64 %.016.i, %35
  br i1 %36, label %RARRAY_AREF.exit.i, label %47

37:                                               ; preds = %rb_array_len.exit.i
  %38 = load ptr, ptr %28, align 8, !tbaa !44
  br label %RARRAY_AREF.exit.i

RARRAY_AREF.exit.i:                               ; preds = %37, %rb_array_len.exit.thread.i
  %.0.i.i.i = phi ptr [ %38, %37 ], [ %27, %rb_array_len.exit.thread.i ]
  %39 = getelementptr i64, ptr %.0.i.i.i, i64 %.016.i
  %40 = load i64, ptr %39, align 8, !tbaa !7
  %41 = tail call ptr @rb_check_typeddata(i64 noundef %40, ptr noundef nonnull @proc_entry_data_type) #18
  %42 = getelementptr inbounds nuw i8, ptr %41, i64 16
  %43 = load ptr, ptr %42, align 8, !tbaa !46
  %44 = load ptr, ptr %43, align 8, !tbaa !103
  %45 = tail call ptr %44(i64 noundef %40, ptr noundef %22, i64 noundef %18, i64 noundef %.016.i) #18
  %.not.i = icmp eq ptr %45, null
  %46 = add nuw nsw i64 %.016.i, 1
  br i1 %.not.i, label %.critedge.i, label %29, !llvm.loop !104

47:                                               ; preds = %rb_array_len.exit.thread.i, %rb_array_len.exit.i
  %48 = tail call i64 @rb_funcallv(i64 noundef %14, i64 noundef 136, i32 noundef 1, ptr noundef nonnull %24) #18
  br label %.critedge.i

.critedge.i:                                      ; preds = %RARRAY_AREF.exit.i, %47
  %49 = load i64, ptr %25, align 8, !tbaa !44
  %50 = and i64 %49, 1
  %.not19.i = icmp eq i64 %50, 0
  br i1 %.not19.i, label %lazy_yielder_result.exit, label %51

51:                                               ; preds = %.critedge.i
  tail call void @rb_iter_break() #19
  unreachable

lazy_yielder_result.exit:                         ; preds = %.critedge.i
  %52 = load i64, ptr %24, align 8, !tbaa !105
  ret i64 %52
}